target datalayout = "e-m:e-p270:32:32-p271:32:32-p272:64:64-i64:64-i128:128-f80:128-n8:16:32:64-S128"
target triple = "x86_64-pc-linux-gnu"

%"class.pxrInternal_v0_24__pxrReserved__::VtArray" = type { %"class.pxrInternal_v0_24__pxrReserved__::Vt_ArrayBase", ptr }
%"class.pxrInternal_v0_24__pxrReserved__::Vt_ArrayBase" = type { %"struct.pxrInternal_v0_24__pxrReserved__::Vt_ShapeData", ptr }
%"struct.pxrInternal_v0_24__pxrReserved__::Vt_ShapeData" = type { i64, [3 x i32] }

; Function Attrs: mustprogress uwtable
define void @_ZN32pxrInternal_v0_24__pxrReserved__34UsdImagingSelectionSceneIndex_Impl6_RangeEm(ptr dead_on_unwind noalias writable sret(%"class.pxrInternal_v0_24__pxrReserved__::VtArray") align 8 %0, i64 noundef %1) #0 personality ptr @__gxx_personality_v0 {
  %3 = alloca ptr, align 8
  %4 = alloca i64, align 8
  %5 = alloca i1, align 1
  %6 = alloca i64, align 8
  %7 = alloca ptr, align 8
  %8 = alloca i32, align 4
  store ptr %0, ptr %3, align 8
  store i64 %1, ptr %4, align 8
  store i1 false, ptr %5, align 1
  %9 = load i64, ptr %4, align 8
  call void @_ZN32pxrInternal_v0_24__pxrReserved__7VtArrayIiEC1Em(ptr noundef nonnull align 8 dereferenceable(40) %0, i64 noundef %9)
  store i64 0, ptr %6, align 8
  br label %10

10:                                               ; preds = %20, %2
  %11 = load i64, ptr %6, align 8
  %12 = load i64, ptr %4, align 8
  %13 = icmp ult i64 %11, %12
  br i1 %13, label %14, label %27

14:                                               ; preds = %10
  %15 = load i64, ptr %6, align 8
  %16 = trunc i64 %15 to i32
  %17 = load i64, ptr %6, align 8
  %18 = invoke noundef nonnull align 4 dereferenceable(4) ptr @_ZN32pxrInternal_v0_24__pxrReserved__7VtArrayIiEixEm(ptr noundef nonnull align 8 dereferenceable(40) %0, i64 noundef %17)
          to label %19 unwind label %23

19:                                               ; preds = %14
  store i32 %16, ptr %18, align 4
  br label %20

20:                                               ; preds = %19
  %21 = load i64, ptr %6, align 8
  %22 = add i64 %21, 1
  store i64 %22, ptr %6, align 8
  br label %10, !llvm.loop !6

23:                                               ; preds = %14
  %24 = landingpad { ptr, i32 }
          cleanup
  %25 = extractvalue { ptr, i32 } %24, 0
  store ptr %25, ptr %7, align 8
  %26 = extractvalue { ptr, i32 } %24, 1
  store i32 %26, ptr %8, align 4
  call void @_ZN32pxrInternal_v0_24__pxrReserved__7VtArrayIiED1Ev(ptr noundef nonnull align 8 dereferenceable(40) %0) #5
  br label %31

27:                                               ; preds = %10
  store i1 true, ptr %5, align 1
  %28 = load i1, ptr %5, align 1
  br i1 %28, label %30, label %29

29:                                               ; preds = %27
  call void @_ZN32pxrInternal_v0_24__pxrReserved__7VtArrayIiED1Ev(ptr noundef nonnull align 8 dereferenceable(40) %0) #5
  br label %30

30:                                               ; preds = %29, %27
  ret void

31:                                               ; preds = %23
  %32 = load ptr, ptr %7, align 8
  %33 = load i32, ptr %8, align 4
  %34 = insertvalue { ptr, i32 } poison, ptr %32, 0
  %35 = insertvalue { ptr, i32 } %34, i32 %33, 1
  resume { ptr, i32 } %35
}