; Function Attrs: mustprogress uwtable
define void @_ZN32pxrInternal_v0_24__pxrReserved__34UsdImagingSelectionSceneIndex_Impl6_RangeEm(ptr dead_on_unwind noalias nonnull writable sret(%"class.pxrInternal_v0_24__pxrReserved__::VtArray") align 8 %0, i64 noundef %1) local_unnamed_addr #0 personality ptr @__gxx_personality_v0 {
  tail call void @_ZN32pxrInternal_v0_24__pxrReserved__7VtArrayIiEC1Em(ptr noundef nonnull align 8 dereferenceable(40) %0, i64 noundef %1)
  %.not = icmp eq i64 %1, 0
  br i1 %.not, label %._crit_edge, label %.lr.ph

.lr.ph:                                           ; preds = %2, %4
  %.08 = phi i64 [ %6, %4 ], [ 0, %2 ]
  %3 = invoke noundef nonnull align 4 dereferenceable(4) ptr @_ZN32pxrInternal_v0_24__pxrReserved__7VtArrayIiEixEm(ptr noundef nonnull align 8 dereferenceable(40) %0, i64 noundef %.08)
          to label %4 unwind label %7

4:                                                ; preds = %.lr.ph
  %5 = trunc i64 %.08 to i32
  store i32 %5, ptr %3, align 4
  %6 = add nuw i64 %.08, 1
  %exitcond.not = icmp eq i64 %6, %1
  br i1 %exitcond.not, label %._crit_edge, label %.lr.ph, !llvm.loop !11

7:                                                ; preds = %.lr.ph
  %8 = landingpad { ptr, i32 }
          cleanup
  tail call void @_ZN32pxrInternal_v0_24__pxrReserved__7VtArrayIiED1Ev(ptr noundef nonnull align 8 dereferenceable(40) %0) #21
  resume { ptr, i32 } %8

._crit_edge:                                      ; preds = %4, %2
  ret void
}